; Function Attrs: nounwind uwtable
define dso_local void @extstore_close_page(ptr noundef %0, i32 noundef %1, i64 noundef %2) local_unnamed_addr #0 {
  %4 = getelementptr inbounds nuw i8, ptr %0, i64 40
  %5 = load ptr, ptr %4, align 8, !tbaa !33
  %6 = zext i32 %1 to i64
  %7 = getelementptr inbounds nuw %struct._store_page, ptr %5, i64 %6
  %8 = tail call i32 @pthread_mutex_lock(ptr noundef %7) #13
  %9 = getelementptr inbounds nuw i8, ptr %7, i64 95
  %10 = load i8, ptr %9, align 1, !tbaa !51, !range !46, !noundef !47
  %11 = trunc nuw i8 %10 to i1
  br i1 %11, label %26, label %12

12:                                               ; preds = %3
  %13 = getelementptr inbounds nuw i8, ptr %7, i64 94
  %14 = load i8, ptr %13, align 2, !tbaa !45, !range !46, !noundef !47
  %15 = trunc nuw i8 %14 to i1
  br i1 %15, label %26, label %16

16:                                               ; preds = %12
  %17 = getelementptr inbounds nuw i8, ptr %7, i64 64
  %18 = load i32, ptr %17, align 8, !tbaa !41
  %19 = zext i32 %18 to i64
  %20 = icmp eq i64 %2, %19
  br i1 %20, label %21, label %26

21:                                               ; preds = %16
  store i8 1, ptr %9, align 1, !tbaa !51
  %22 = getelementptr inbounds nuw i8, ptr %7, i64 68
  %23 = load i32, ptr %22, align 4, !tbaa !54
  %24 = icmp eq i32 %23, 0
  br i1 %24, label %25, label %26

25:                                               ; preds = %21
  tail call fastcc void @_free_page(ptr noundef nonnull %0, ptr noundef nonnull %7)
  br label %26

26:                                               ; preds = %21, %25, %16, %12, %3
  %27 = tail call i32 @pthread_mutex_unlock(ptr noundef nonnull %7) #13
  ret void
}